; Function Attrs: nounwind uwtable
define hidden noalias ptr @mi_heap_alloc_new_n(ptr noundef %0, i64 noundef %1, i64 noundef %2) local_unnamed_addr #3 {
  %.not = icmp eq i64 %1, 1
  br i1 %.not, label %8, label %4

4:                                                ; preds = %3
  %5 = tail call { i64, i1 } @llvm.umul.with.overflow.i64(i64 range(i64 2, 1) %1, i64 %2)
  %6 = extractvalue { i64, i1 } %5, 1
  %7 = extractvalue { i64, i1 } %5, 0
  br i1 %6, label %mi_count_size_overflow.exit, label %8, !prof !17

mi_count_size_overflow.exit:                      ; preds = %4
  tail call fastcc void @mi_try_new_handler(i1 noundef zeroext false) #20
  br label %mi_heap_alloc_new.exit

8:                                                ; preds = %4, %3
  %storemerge.i.ph = phi i64 [ %2, %3 ], [ %7, %4 ]
  %9 = icmp ult i64 %storemerge.i.ph, 1025
  br i1 %9, label %10, label %mi_heap_malloc.exit.i, !prof !8

10:                                               ; preds = %8
  %11 = add nuw nsw i64 %storemerge.i.ph, 7
  %12 = lshr i64 %11, 3
  %13 = getelementptr inbounds nuw i8, ptr %0, i64 232
  %14 = getelementptr inbounds nuw [129 x ptr], ptr %13, i64 0, i64 %12
  %15 = load ptr, ptr %14, align 8, !tbaa !9
  %16 = getelementptr inbounds nuw i8, ptr %15, i64 8
  %17 = load ptr, ptr %16, align 8, !tbaa !11
  %18 = icmp eq ptr %17, null
  br i1 %18, label %mi_heap_malloc.exit.i, label %mi_heap_malloc.exit.thread.i, !prof !17

mi_heap_malloc.exit.thread.i:                     ; preds = %10
  %.val.i.i.i.i.i.i = load i64, ptr %17, align 8, !tbaa !18
  %19 = inttoptr i64 %.val.i.i.i.i.i.i to ptr
  store ptr %19, ptr %16, align 8, !tbaa !11
  %20 = getelementptr inbounds nuw i8, ptr %15, i64 24
  %21 = load i16, ptr %20, align 8, !tbaa !20
  %22 = add i16 %21, 1
  store i16 %22, ptr %20, align 8, !tbaa !20
  br label %mi_heap_alloc_new.exit

mi_heap_malloc.exit.i:                            ; preds = %10, %8
  %23 = tail call noalias ptr @_mi_malloc_generic(ptr noundef %0, i64 noundef %storemerge.i.ph, i1 noundef zeroext false, i64 noundef 0) #19
  %24 = icmp eq ptr %23, null
  br i1 %24, label %25, label %mi_heap_alloc_new.exit, !prof !31

25:                                               ; preds = %mi_heap_malloc.exit.i
  %26 = tail call ptr @mi_heap_try_new(ptr noundef %0, i64 noundef %storemerge.i.ph, i1 noundef zeroext false) #20
  br label %mi_heap_alloc_new.exit

mi_heap_alloc_new.exit:                           ; preds = %25, %mi_heap_malloc.exit.i, %mi_heap_malloc.exit.thread.i, %mi_count_size_overflow.exit
  %.0 = phi ptr [ null, %mi_count_size_overflow.exit ], [ %26, %25 ], [ %23, %mi_heap_malloc.exit.i ], [ %17, %mi_heap_malloc.exit.thread.i ]
  ret ptr %.0
}